target datalayout = "e-m:e-p270:32:32-p271:32:32-p272:64:64-i64:64-i128:128-f80:128-n8:16:32:64-S128"
target triple = "x86_64-pc-linux-gnu"

%"class.grpc_core::CompressionAlgorithmSet" = type { %"class.grpc_core::BitSet" }
%"class.grpc_core::BitSet" = type { [1 x i8] }

@_ZN9grpc_core23CompressionAlgorithmSetC1Ev = unnamed_addr alias void (ptr), ptr @_ZN9grpc_core23CompressionAlgorithmSetC2Ev

; Function Attrs: mustprogress nounwind uwtable
define linkonce_odr noundef i64 @_ZN9grpc_core6BitSetILm3ELm8EE8unit_forEm(i64 noundef %0) #4 comdat align 2 {
  %2 = alloca i64, align 8
  store i64 %0, ptr %2, align 8, !tbaa !17
  %3 = load i64, ptr %2, align 8, !tbaa !17
  %4 = udiv i64 %3, 8
  ret i64 %4
}

; Function Attrs: mustprogress nounwind uwtable
define linkonce_odr noundef zeroext i8 @_ZN9grpc_core6BitSetILm3ELm8EE8mask_forEm(i64 noundef %0) #4 comdat align 2 {
  %2 = alloca i64, align 8
  store i64 %0, ptr %2, align 8, !tbaa !17
  %3 = load i64, ptr %2, align 8, !tbaa !17
  %4 = urem i64 %3, 8
  %5 = trunc i64 %4 to i32
  %6 = shl i32 1, %5
  %7 = trunc i32 %6 to i8
  ret i8 %7
}

; Function Attrs: mustprogress nounwind uwtable
define linkonce_odr void @_ZN9grpc_core6BitSetILm3ELm8EE3setEi(ptr noundef nonnull align 1 dereferenceable(1) %0, i32 noundef %1) #4 comdat align 2 {
  %3 = alloca ptr, align 8
  %4 = alloca i32, align 4
  store ptr %0, ptr %3, align 8, !tbaa !66
  store i32 %1, ptr %4, align 4, !tbaa !37
  %5 = load ptr, ptr %3, align 8
  %6 = load i32, ptr %4, align 4, !tbaa !37
  %7 = sext i32 %6 to i64
  %8 = call noundef zeroext i8 @_ZN9grpc_core6BitSetILm3ELm8EE8mask_forEm(i64 noundef %7)
  %9 = zext i8 %8 to i32
  %10 = getelementptr inbounds nuw %"class.grpc_core::BitSet", ptr %5, i32 0, i32 0
  %11 = load i32, ptr %4, align 4, !tbaa !37
  %12 = sext i32 %11 to i64
  %13 = call noundef i64 @_ZN9grpc_core6BitSetILm3ELm8EE8unit_forEm(i64 noundef %12)
  %14 = getelementptr inbounds nuw [1 x i8], ptr %10, i64 0, i64 %13
  %15 = load i8, ptr %14, align 1, !tbaa !19
  %16 = zext i8 %15 to i32
  %17 = or i32 %16, %9
  %18 = trunc i32 %17 to i8
  store i8 %18, ptr %14, align 1, !tbaa !19
  ret void
}

; Function Attrs: mustprogress uwtable
define i8 @_ZN9grpc_core23CompressionAlgorithmSet10FromUint32Ej(i32 noundef %0) #5 align 2 {
  %2 = alloca %"class.grpc_core::CompressionAlgorithmSet", align 1
  %3 = alloca i32, align 4
  %4 = alloca i64, align 8
  store i32 %0, ptr %3, align 4, !tbaa !37
  call void @_ZN9grpc_core23CompressionAlgorithmSetC1Ev(ptr noundef nonnull align 1 dereferenceable(1) %2)
  call void @llvm.lifetime.start.p0(i64 8, ptr %4) #3
  store i64 0, ptr %4, align 8, !tbaa !17
  br label %5

5:                                                ; preds = %21, %1
  %6 = load i64, ptr %4, align 8, !tbaa !17
  %7 = icmp ult i64 %6, 3
  br i1 %7, label %9, label %8

8:                                                ; preds = %5
  call void @llvm.lifetime.end.p0(i64 8, ptr %4) #3
  br label %24

9:                                                ; preds = %5
  %10 = load i32, ptr %3, align 4, !tbaa !37
  %11 = load i64, ptr %4, align 8, !tbaa !17
  %12 = trunc i64 %11 to i32
  %13 = shl i32 1, %12
  %14 = and i32 %10, %13
  %15 = icmp ne i32 %14, 0
  br i1 %15, label %16, label %20

16:                                               ; preds = %9
  %17 = getelementptr inbounds nuw %"class.grpc_core::CompressionAlgorithmSet", ptr %2, i32 0, i32 0
  %18 = load i64, ptr %4, align 8, !tbaa !17
  %19 = trunc i64 %18 to i32
  call void @_ZN9grpc_core6BitSetILm3ELm8EE3setEi(ptr noundef nonnull align 1 dereferenceable(1) %17, i32 noundef %19)
  br label %20

20:                                               ; preds = %16, %9
  br label %21

21:                                               ; preds = %20
  %22 = load i64, ptr %4, align 8, !tbaa !17
  %23 = add i64 %22, 1
  store i64 %23, ptr %4, align 8, !tbaa !17
  br label %5, !llvm.loop !68

24:                                               ; preds = %8
  %25 = getelementptr inbounds nuw %"class.grpc_core::CompressionAlgorithmSet", ptr %2, i32 0, i32 0
  %26 = getelementptr inbounds nuw %"class.grpc_core::BitSet", ptr %25, i32 0, i32 0
  %27 = load i8, ptr %26, align 1
  ret i8 %27
}