; Function Attrs: mustprogress uwtable
define i8 @_ZN9grpc_core23CompressionAlgorithmSet10FromUint32Ej(i32 noundef %0) local_unnamed_addr #6 align 2 {
  %2 = alloca %"class.grpc_core::CompressionAlgorithmSet", align 1
  call void @_ZN9grpc_core23CompressionAlgorithmSetC1Ev(ptr noundef nonnull align 1 dereferenceable(1) %2)
  %.promoted = load i8, ptr %2, align 1
  br label %4

3:                                                ; preds = %4
  ret i8 %12

4:                                                ; preds = %1, %4
  %.05 = phi i64 [ 0, %1 ], [ %13, %4 ]
  %5 = phi i8 [ %.promoted, %1 ], [ %12, %4 ]
  %6 = trunc nuw nsw i64 %.05 to i32
  %7 = shl nuw nsw i32 1, %6
  %8 = and i32 %7, %0
  %.not = icmp eq i32 %8, 0
  %9 = trunc nuw i64 %.05 to i8
  %10 = shl nuw nsw i8 1, %9
  %11 = select i1 %.not, i8 0, i8 %10
  %12 = or i8 %5, %11
  %13 = add nuw nsw i64 %.05, 1
  %exitcond.not = icmp eq i64 %13, 3
  br i1 %exitcond.not, label %3, label %4, !llvm.loop !28
}